target datalayout = "e-m:e-p270:32:32-p271:32:32-p272:64:64-i64:64-i128:128-f80:128-n8:16:32:64-S128"
target triple = "x86_64-pc-linux-gnu"

%struct.rb_transcoder = type { ptr, ptr, i32, ptr, i32, ptr, i32, i32, i32, i32, i32, i32, i64, ptr, ptr, ptr, ptr, ptr, ptr, ptr, ptr, ptr, ptr }
%struct.rb_econv_t = type { i32, i32, ptr, ptr, ptr, i64, ptr, ptr, ptr, ptr, ptr, ptr, i32, i32, i32, i32, ptr, %struct.anon, ptr, ptr }
%struct.anon = type { i32, ptr, ptr, ptr, ptr, i64, i64 }
%struct.rb_transcoding = type { ptr, i32, i32, i32, i64, i8, i32, i64, i64, %union.anon, i64, i64, %union.anon.0, %union.rb_transcoding_state_t }
%union.anon = type { ptr }
%union.anon.0 = type { ptr }
%union.rb_transcoding_state_t = type { ptr }
%struct.rbimpl_size_mul_overflow_tag = type { i8, i64 }

@.str.2 = private unnamed_addr constant [1 x i8] zeroinitializer, align 1

; Function Attrs: alwaysinline nounwind
define internal ptr @memcpy.inline(ptr noalias nonnull %0, ptr noalias nonnull %1, i64 %2) #6 {
  %4 = alloca ptr, align 8
  %5 = alloca ptr, align 8
  %6 = alloca i64, align 8
  store ptr %0, ptr %4, align 8, !tbaa !23
  store ptr %1, ptr %5, align 8, !tbaa !23
  store i64 %2, ptr %6, align 8, !tbaa !12
  %7 = load ptr, ptr %4, align 8, !tbaa !23
  %8 = load ptr, ptr %5, align 8, !tbaa !23
  %9 = load i64, ptr %6, align 8, !tbaa !12
  %10 = load ptr, ptr %4, align 8, !tbaa !23
  %11 = call i64 @llvm.objectsize.i64.p0(ptr %10, i1 false, i1 true, i1 false)
  %12 = call ptr @__memcpy_chk(ptr noundef %7, ptr noundef %8, i64 noundef %9, i64 noundef %11) #25
  ret ptr %12
}

; Function Attrs: inlinehint nounwind sspstrong willreturn memory(none) uwtable
define internal { i8, i64 } @rbimpl_size_mul_overflow(i64 noundef %0, i64 noundef %1) #10 {
  %3 = alloca %struct.rbimpl_size_mul_overflow_tag, align 8
  %4 = alloca i64, align 8
  %5 = alloca i64, align 8
  store i64 %0, ptr %4, align 8, !tbaa !12
  store i64 %1, ptr %5, align 8, !tbaa !12
  call void @llvm.memset.p0.i64(ptr align 8 %3, i8 0, i64 16, i1 false)
  %6 = load i64, ptr %4, align 8, !tbaa !12
  %7 = load i64, ptr %5, align 8, !tbaa !12
  %8 = getelementptr inbounds nuw %struct.rbimpl_size_mul_overflow_tag, ptr %3, i32 0, i32 1
  %9 = call { i64, i1 } @llvm.umul.with.overflow.i64(i64 %6, i64 %7)
  %10 = extractvalue { i64, i1 } %9, 1
  %11 = extractvalue { i64, i1 } %9, 0
  store i64 %11, ptr %8, align 8
  %12 = getelementptr inbounds nuw %struct.rbimpl_size_mul_overflow_tag, ptr %3, i32 0, i32 0
  %13 = zext i1 %10 to i8
  store i8 %13, ptr %12, align 8, !tbaa !83
  %14 = load { i8, i64 }, ptr %3, align 8
  ret { i8, i64 } %14
}

; Function Attrs: inlinehint nounwind sspstrong memory(argmem: readwrite, inaccessiblemem: readwrite) uwtable
define internal nonnull ptr @ruby_nonempty_memcpy(ptr noundef nonnull %0, ptr noundef %1, i64 noundef %2) #9 {
  %4 = alloca ptr, align 8
  %5 = alloca ptr, align 8
  %6 = alloca ptr, align 8
  %7 = alloca i64, align 8
  store ptr %0, ptr %5, align 8, !tbaa !23
  store ptr %1, ptr %6, align 8, !tbaa !23
  store i64 %2, ptr %7, align 8, !tbaa !12
  %8 = load i64, ptr %7, align 8, !tbaa !12
  %9 = icmp ne i64 %8, 0
  br i1 %9, label %10, label %15

10:                                               ; preds = %3
  %11 = load ptr, ptr %5, align 8, !tbaa !23
  %12 = load ptr, ptr %6, align 8, !tbaa !23
  %13 = load i64, ptr %7, align 8, !tbaa !12
  %14 = call ptr @memcpy.inline(ptr noundef %11, ptr noundef %12, i64 noundef %13) #25
  store ptr %14, ptr %4, align 8
  br label %17

15:                                               ; preds = %3
  %16 = load ptr, ptr %5, align 8, !tbaa !23
  store ptr %16, ptr %4, align 8
  br label %17

17:                                               ; preds = %15, %10
  %18 = load ptr, ptr %4, align 8
  ret ptr %18
}

; Function Attrs: inlinehint nounwind sspstrong uwtable
define internal i64 @rbimpl_size_mul_or_raise(i64 noundef %0, i64 noundef %1) #7 {
  %3 = alloca i64, align 8
  %4 = alloca i64, align 8
  %5 = alloca %struct.rbimpl_size_mul_overflow_tag, align 8
  store i64 %0, ptr %3, align 8, !tbaa !12
  store i64 %1, ptr %4, align 8, !tbaa !12
  call void @llvm.lifetime.start.p0(i64 16, ptr %5) #25
  %6 = load i64, ptr %3, align 8, !tbaa !12
  %7 = load i64, ptr %4, align 8, !tbaa !12
  %8 = call { i8, i64 } @rbimpl_size_mul_overflow(i64 noundef %6, i64 noundef %7) #31
  %9 = getelementptr inbounds nuw { i8, i64 }, ptr %5, i32 0, i32 0
  %10 = extractvalue { i8, i64 } %8, 0
  store i8 %10, ptr %9, align 8
  %11 = getelementptr inbounds nuw { i8, i64 }, ptr %5, i32 0, i32 1
  %12 = extractvalue { i8, i64 } %8, 1
  store i64 %12, ptr %11, align 8
  %13 = getelementptr inbounds nuw %struct.rbimpl_size_mul_overflow_tag, ptr %5, i32 0, i32 0
  %14 = load i8, ptr %13, align 8, !tbaa !83, !range !86, !noundef !87
  %15 = trunc i8 %14 to i1
  %16 = xor i1 %15, true
  %17 = xor i1 %16, true
  %18 = xor i1 %17, true
  %19 = zext i1 %18 to i32
  %20 = sext i32 %19 to i64
  %21 = call i64 @llvm.expect.i64(i64 %20, i64 1)
  %22 = icmp ne i64 %21, 0
  br i1 %22, label %23, label %26

23:                                               ; preds = %2
  %24 = getelementptr inbounds nuw %struct.rbimpl_size_mul_overflow_tag, ptr %5, i32 0, i32 1
  %25 = load i64, ptr %24, align 8, !tbaa !88
  call void @llvm.lifetime.end.p0(i64 16, ptr %5) #25
  ret i64 %25

26:                                               ; preds = %2
  %27 = load i64, ptr %3, align 8, !tbaa !12
  %28 = load i64, ptr %4, align 8, !tbaa !12
  call void @ruby_malloc_size_overflow(i64 noundef %27, i64 noundef %28) #26
  unreachable
}

; Function Attrs: nounwind sspstrong uwtable
define dso_local ptr @rb_econv_encoding_to_insert_output(ptr noundef %0) #0 {
  %2 = alloca ptr, align 8
  %3 = alloca ptr, align 8
  %4 = alloca ptr, align 8
  %5 = alloca ptr, align 8
  %6 = alloca i32, align 4
  store ptr %0, ptr %3, align 8, !tbaa !30
  call void @llvm.lifetime.start.p0(i64 8, ptr %4) #25
  %7 = load ptr, ptr %3, align 8, !tbaa !30
  %8 = getelementptr inbounds nuw %struct.rb_econv_t, ptr %7, i32 0, i32 16
  %9 = load ptr, ptr %8, align 8, !tbaa !79
  store ptr %9, ptr %4, align 8, !tbaa !66
  call void @llvm.lifetime.start.p0(i64 8, ptr %5) #25
  %10 = load ptr, ptr %4, align 8, !tbaa !66
  %11 = icmp eq ptr %10, null
  br i1 %11, label %12, label %13

12:                                               ; preds = %1
  store ptr @.str.2, ptr %2, align 8
  store i32 1, ptr %6, align 4
  br label %29

13:                                               ; preds = %1
  %14 = load ptr, ptr %4, align 8, !tbaa !66
  %15 = getelementptr inbounds nuw %struct.rb_transcoding, ptr %14, i32 0, i32 0
  %16 = load ptr, ptr %15, align 8, !tbaa !51
  store ptr %16, ptr %5, align 8, !tbaa !14
  %17 = load ptr, ptr %5, align 8, !tbaa !14
  %18 = getelementptr inbounds nuw %struct.rb_transcoder, ptr %17, i32 0, i32 11
  %19 = load i32, ptr %18, align 4, !tbaa !53
  %20 = icmp eq i32 %19, 2
  br i1 %20, label %21, label %25

21:                                               ; preds = %13
  %22 = load ptr, ptr %5, align 8, !tbaa !14
  %23 = getelementptr inbounds nuw %struct.rb_transcoder, ptr %22, i32 0, i32 0
  %24 = load ptr, ptr %23, align 8, !tbaa !16
  store ptr %24, ptr %2, align 8
  store i32 1, ptr %6, align 4
  br label %29

25:                                               ; preds = %13
  %26 = load ptr, ptr %5, align 8, !tbaa !14
  %27 = getelementptr inbounds nuw %struct.rb_transcoder, ptr %26, i32 0, i32 1
  %28 = load ptr, ptr %27, align 8, !tbaa !22
  store ptr %28, ptr %2, align 8
  store i32 1, ptr %6, align 4
  br label %29

29:                                               ; preds = %25, %21, %12
  call void @llvm.lifetime.end.p0(i64 8, ptr %5) #25
  call void @llvm.lifetime.end.p0(i64 8, ptr %4) #25
  %30 = load ptr, ptr %2, align 8
  ret ptr %30
}

; Function Attrs: nounwind sspstrong uwtable
define dso_local i32 @rb_econv_set_replacement(ptr noundef %0, ptr noundef %1, i64 noundef %2, ptr noundef %3) #0 {
  %5 = alloca i32, align 4
  %6 = alloca ptr, align 8
  %7 = alloca ptr, align 8
  %8 = alloca i64, align 8
  %9 = alloca ptr, align 8
  %10 = alloca ptr, align 8
  %11 = alloca i64, align 8
  %12 = alloca ptr, align 8
  %13 = alloca i32, align 4
  store ptr %0, ptr %6, align 8, !tbaa !30
  store ptr %1, ptr %7, align 8, !tbaa !21
  store i64 %2, ptr %8, align 8, !tbaa !12
  store ptr %3, ptr %9, align 8, !tbaa !21
  call void @llvm.lifetime.start.p0(i64 8, ptr %10) #25
  call void @llvm.lifetime.start.p0(i64 8, ptr %11) #25
  call void @llvm.lifetime.start.p0(i64 8, ptr %12) #25
  %14 = load ptr, ptr %6, align 8, !tbaa !30
  %15 = call ptr @rb_econv_encoding_to_insert_output(ptr noundef %14)
  store ptr %15, ptr %12, align 8, !tbaa !21
  %16 = load ptr, ptr %12, align 8, !tbaa !21
  %17 = load i8, ptr %16, align 1, !tbaa !41
  %18 = icmp ne i8 %17, 0
  br i1 %18, label %19, label %24

19:                                               ; preds = %4
  %20 = load ptr, ptr %9, align 8, !tbaa !21
  %21 = load ptr, ptr %12, align 8, !tbaa !21
  %22 = call i32 @rb_st_locale_insensitive_strcasecmp(ptr noundef %20, ptr noundef %21) #29
  %23 = icmp eq i32 %22, 0
  br i1 %23, label %24, label %34

24:                                               ; preds = %19, %4
  %25 = load i64, ptr %8, align 8, !tbaa !12
  %26 = call noalias nonnull ptr @ruby_xmalloc(i64 noundef %25) #27
  store ptr %26, ptr %10, align 8, !tbaa !21
  %27 = load ptr, ptr %10, align 8, !tbaa !21
  %28 = load ptr, ptr %7, align 8, !tbaa !21
  %29 = load i64, ptr %8, align 8, !tbaa !12
  %30 = call i64 @rbimpl_size_mul_or_raise(i64 noundef 1, i64 noundef %29)
  %31 = call nonnull ptr @ruby_nonempty_memcpy(ptr noundef %27, ptr noundef %28, i64 noundef %30) #28
  %32 = load i64, ptr %8, align 8, !tbaa !12
  store i64 %32, ptr %11, align 8, !tbaa !12
  %33 = load ptr, ptr %9, align 8, !tbaa !21
  store ptr %33, ptr %12, align 8, !tbaa !21
  br label %44

34:                                               ; preds = %19
  %35 = load ptr, ptr %9, align 8, !tbaa !21
  %36 = load ptr, ptr %12, align 8, !tbaa !21
  %37 = load ptr, ptr %7, align 8, !tbaa !21
  %38 = load i64, ptr %8, align 8, !tbaa !12
  %39 = call ptr @allocate_converted_string(ptr noundef %35, ptr noundef %36, ptr noundef %37, i64 noundef %38, ptr noundef null, i64 noundef 0, ptr noundef %11)
  store ptr %39, ptr %10, align 8, !tbaa !21
  %40 = load ptr, ptr %10, align 8, !tbaa !21
  %41 = icmp ne ptr %40, null
  br i1 %41, label %43, label %42

42:                                               ; preds = %34
  store i32 -1, ptr %5, align 4
  store i32 1, ptr %13, align 4
  br label %65

43:                                               ; preds = %34
  br label %44

44:                                               ; preds = %43, %24
  %45 = load ptr, ptr %6, align 8, !tbaa !30
  %46 = getelementptr inbounds nuw %struct.rb_econv_t, ptr %45, i32 0, i32 12
  %47 = load i32, ptr %46, align 8, !tbaa !54
  %48 = icmp ne i32 %47, 0
  br i1 %48, label %49, label %53

49:                                               ; preds = %44
  %50 = load ptr, ptr %6, align 8, !tbaa !30
  %51 = getelementptr inbounds nuw %struct.rb_econv_t, ptr %50, i32 0, i32 4
  %52 = load ptr, ptr %51, align 8, !tbaa !55
  call void @ruby_xfree(ptr noundef %52)
  br label %53

53:                                               ; preds = %49, %44
  %54 = load ptr, ptr %6, align 8, !tbaa !30
  %55 = getelementptr inbounds nuw %struct.rb_econv_t, ptr %54, i32 0, i32 12
  store i32 1, ptr %55, align 8, !tbaa !54
  %56 = load ptr, ptr %10, align 8, !tbaa !21
  %57 = load ptr, ptr %6, align 8, !tbaa !30
  %58 = getelementptr inbounds nuw %struct.rb_econv_t, ptr %57, i32 0, i32 4
  store ptr %56, ptr %58, align 8, !tbaa !55
  %59 = load i64, ptr %11, align 8, !tbaa !12
  %60 = load ptr, ptr %6, align 8, !tbaa !30
  %61 = getelementptr inbounds nuw %struct.rb_econv_t, ptr %60, i32 0, i32 5
  store i64 %59, ptr %61, align 8, !tbaa !76
  %62 = load ptr, ptr %12, align 8, !tbaa !21
  %63 = load ptr, ptr %6, align 8, !tbaa !30
  %64 = getelementptr inbounds nuw %struct.rb_econv_t, ptr %63, i32 0, i32 6
  store ptr %62, ptr %64, align 8, !tbaa !77
  store i32 0, ptr %5, align 4
  store i32 1, ptr %13, align 4
  br label %65

65:                                               ; preds = %53, %42
  call void @llvm.lifetime.end.p0(i64 8, ptr %12) #25
  call void @llvm.lifetime.end.p0(i64 8, ptr %11) #25
  call void @llvm.lifetime.end.p0(i64 8, ptr %10) #25
  %66 = load i32, ptr %5, align 4
  ret i32 %66
}