; Function Attrs: nounwind sspstrong uwtable
define dso_local range(i32 -1, 1) i32 @rb_econv_set_replacement(ptr noundef captures(none) %0, ptr noundef %1, i64 noundef %2, ptr noundef %3) local_unnamed_addr #0 {
  %5 = alloca i64, align 8
  call void @llvm.lifetime.start.p0(i64 8, ptr nonnull %5) #22
  %6 = getelementptr inbounds nuw i8, ptr %0, i64 104
  %7 = load ptr, ptr %6, align 8, !tbaa !49
  %8 = icmp eq ptr %7, null
  br i1 %8, label %rb_econv_encoding_to_insert_output.exit, label %9

9:                                                ; preds = %4
  %10 = load ptr, ptr %7, align 8, !tbaa !65
  %11 = getelementptr inbounds nuw i8, ptr %10, i64 68
  %12 = load i32, ptr %11, align 4, !tbaa !67
  %13 = icmp eq i32 %12, 2
  br i1 %13, label %14, label %16

14:                                               ; preds = %9
  %15 = load ptr, ptr %10, align 8, !tbaa !12
  br label %rb_econv_encoding_to_insert_output.exit

16:                                               ; preds = %9
  %17 = getelementptr inbounds nuw i8, ptr %10, i64 8
  %18 = load ptr, ptr %17, align 8, !tbaa !18
  br label %rb_econv_encoding_to_insert_output.exit

rb_econv_encoding_to_insert_output.exit:          ; preds = %4, %14, %16
  %.0.i = phi ptr [ %15, %14 ], [ %18, %16 ], [ @.str.2, %4 ]
  %19 = load i8, ptr %.0.i, align 1, !tbaa !27
  %.not = icmp eq i8 %19, 0
  br i1 %.not, label %rbimpl_size_mul_or_raise.exit, label %20

20:                                               ; preds = %rb_econv_encoding_to_insert_output.exit
  %21 = tail call i32 @rb_st_locale_insensitive_strcasecmp(ptr noundef %3, ptr noundef nonnull %.0.i) #25
  %22 = icmp eq i32 %21, 0
  br i1 %22, label %rbimpl_size_mul_or_raise.exit, label %25

rbimpl_size_mul_or_raise.exit:                    ; preds = %20, %rb_econv_encoding_to_insert_output.exit
  %23 = tail call noalias nonnull ptr @ruby_xmalloc(i64 noundef %2) #24
  %.not.i = icmp eq i64 %2, 0
  br i1 %.not.i, label %ruby_nonempty_memcpy.exit, label %24

24:                                               ; preds = %rbimpl_size_mul_or_raise.exit
  tail call void @llvm.memcpy.p0.p0.i64(ptr noundef nonnull align 1 %23, ptr noundef nonnull readonly align 1 %1, i64 noundef range(i64 1, 0) %2, i1 noundef false) #22
  br label %ruby_nonempty_memcpy.exit

ruby_nonempty_memcpy.exit:                        ; preds = %rbimpl_size_mul_or_raise.exit, %24
  store i64 %2, ptr %5, align 8, !tbaa !22
  br label %27

25:                                               ; preds = %20
  %26 = call fastcc ptr @allocate_converted_string(ptr noundef %3, ptr noundef nonnull %.0.i, ptr noundef %1, i64 noundef %2, ptr noundef null, i64 noundef 0, ptr noundef %5)
  %.not26 = icmp eq ptr %26, null
  br i1 %.not26, label %38, label %27

27:                                               ; preds = %25, %ruby_nonempty_memcpy.exit
  %.023 = phi ptr [ %23, %ruby_nonempty_memcpy.exit ], [ %26, %25 ]
  %.0 = phi ptr [ %3, %ruby_nonempty_memcpy.exit ], [ %.0.i, %25 ]
  %28 = getelementptr inbounds nuw i8, ptr %0, i64 88
  %29 = load i32, ptr %28, align 8, !tbaa !40
  %.not27 = icmp eq i32 %29, 0
  br i1 %.not27, label %33, label %30

30:                                               ; preds = %27
  %31 = getelementptr inbounds nuw i8, ptr %0, i64 24
  %32 = load ptr, ptr %31, align 8, !tbaa !74
  tail call void @ruby_xfree(ptr noundef %32) #22
  br label %33

33:                                               ; preds = %30, %27
  store i32 1, ptr %28, align 8, !tbaa !40
  %34 = getelementptr inbounds nuw i8, ptr %0, i64 24
  store ptr %.023, ptr %34, align 8, !tbaa !74
  %35 = load i64, ptr %5, align 8, !tbaa !22
  %36 = getelementptr inbounds nuw i8, ptr %0, i64 32
  store i64 %35, ptr %36, align 8, !tbaa !96
  %37 = getelementptr inbounds nuw i8, ptr %0, i64 40
  store ptr %.0, ptr %37, align 8, !tbaa !97
  br label %38

38:                                               ; preds = %25, %33
  %.024 = phi i32 [ 0, %33 ], [ -1, %25 ]
  call void @llvm.lifetime.end.p0(i64 8, ptr nonnull %5) #22
  ret i32 %.024
}